target datalayout = "e-m:e-p270:32:32-p271:32:32-p272:64:64-i64:64-i128:128-f80:128-n8:16:32:64-S128"
target triple = "x86_64-pc-linux-gnu"

@scale3 = internal global ptr null, align 8
@scale3_needle = internal global ptr null, align 8
@scale3_mbps_label = internal global ptr null, align 8

; Function Attrs: nounwind uwtable
define internal void @scale3_size_changed_event_cb(ptr noundef %0) #0 {
  %2 = alloca ptr, align 8
  %3 = alloca i32, align 4
  %4 = alloca i32, align 4
  %5 = alloca i32, align 4
  %6 = alloca i32, align 4
  store ptr %0, ptr %2, align 8, !tbaa !7
  call void @llvm.lifetime.start.p0(i64 4, ptr %3) #5
  %7 = load ptr, ptr @scale3, align 8, !tbaa !7
  %8 = call i32 @lv_obj_get_width(ptr noundef %7)
  store i32 %8, ptr %3, align 4, !tbaa !3
  call void @llvm.lifetime.start.p0(i64 4, ptr %4) #5
  %9 = load ptr, ptr @scale3, align 8, !tbaa !7
  %10 = call i32 @lv_obj_get_height(ptr noundef %9)
  store i32 %10, ptr %4, align 4, !tbaa !3
  call void @llvm.lifetime.start.p0(i64 4, ptr %5) #5
  %11 = load i32, ptr %3, align 4, !tbaa !3
  %12 = load i32, ptr %4, align 4, !tbaa !3
  %13 = icmp slt i32 %11, %12
  br i1 %13, label %14, label %16

14:                                               ; preds = %1
  %15 = load i32, ptr %3, align 4, !tbaa !3
  br label %18

16:                                               ; preds = %1
  %17 = load i32, ptr %4, align 4, !tbaa !3
  br label %18

18:                                               ; preds = %16, %14
  %19 = phi i32 [ %15, %14 ], [ %17, %16 ]
  store i32 %19, ptr %5, align 4, !tbaa !3
  call void @llvm.lifetime.start.p0(i64 4, ptr %6) #5
  %20 = load i32, ptr %5, align 4, !tbaa !3
  %21 = sdiv i32 %20, 2
  store i32 %21, ptr %6, align 4, !tbaa !3
  %22 = load ptr, ptr @scale3_needle, align 8, !tbaa !7
  %23 = load i32, ptr %6, align 4, !tbaa !3
  %24 = load i32, ptr %6, align 4, !tbaa !3
  call void @lv_obj_align(ptr noundef %22, i32 noundef 1, i32 noundef %23, i32 noundef %24)
  %25 = load ptr, ptr @scale3_mbps_label, align 8, !tbaa !7
  %26 = load i32, ptr %6, align 4, !tbaa !3
  %27 = load i32, ptr %5, align 4, !tbaa !3
  %28 = mul nsw i32 %27, 55
  %29 = sdiv i32 %28, 100
  call void @lv_obj_align(ptr noundef %25, i32 noundef 1, i32 noundef %26, i32 noundef %29)
  call void @llvm.lifetime.end.p0(i64 4, ptr %6) #5
  call void @llvm.lifetime.end.p0(i64 4, ptr %5) #5
  call void @llvm.lifetime.end.p0(i64 4, ptr %4) #5
  call void @llvm.lifetime.end.p0(i64 4, ptr %3) #5
  ret void
}