; Function Attrs: nounwind uwtable
define internal void @scale3_size_changed_event_cb(ptr nocapture readnone %0) #0 {
  %2 = load ptr, ptr @scale3, align 8, !tbaa !7
  %3 = tail call i32 @lv_obj_get_width(ptr noundef %2) #5
  %4 = load ptr, ptr @scale3, align 8, !tbaa !7
  %5 = tail call i32 @lv_obj_get_height(ptr noundef %4) #5
  %6 = tail call i32 @llvm.smin.i32(i32 %3, i32 %5)
  %7 = sdiv i32 %6, 2
  %8 = load ptr, ptr @scale3_needle, align 8, !tbaa !7
  tail call void @lv_obj_align(ptr noundef %8, i32 noundef 1, i32 noundef %7, i32 noundef %7) #5
  %9 = load ptr, ptr @scale3_mbps_label, align 8, !tbaa !7
  %10 = mul nsw i32 %6, 55
  %11 = sdiv i32 %10, 100
  tail call void @lv_obj_align(ptr noundef %9, i32 noundef 1, i32 noundef %7, i32 noundef %11) #5
  ret void
}